; ModuleID = '12/1082.c'
source_filename = "12/1082.c"
target datalayout = "e-m:e-p270:32:32-p271:32:32-p272:64:64-i64:64-f80:128-n8:16:32:64-S128"
target triple = "x86_64-pc-linux-gnu"

@.str = private unnamed_addr constant [3 x i8] c"%d\00", align 1
@.str.1 = private unnamed_addr constant [4 x i8] c"%d\0A\00", align 1

; Function Attrs: noinline nounwind uwtable
define dso_local i32 @main() #0 {
  %1 = alloca i32, align 4
  %2 = alloca [100 x [16 x i32]], align 16
  %3 = alloca i32, align 4
  %4 = alloca i32, align 4
  %5 = alloca i32, align 4
  %6 = alloca i32, align 4
  %7 = alloca i32, align 4
  store i32 0, i32* %1, align 4
  store i32 0, i32* %5, align 4
  br label %8

8:                                                ; preds = %41, %0
  %9 = load i32, i32* %5, align 4
  %10 = icmp slt i32 %9, 100
  br i1 %10, label %11, label %44

11:                                               ; preds = %8
  store i32 0, i32* %6, align 4
  br label %12

12:                                               ; preds = %29, %11
  %13 = load i32, i32* %6, align 4
  %14 = icmp slt i32 %13, 16
  br i1 %14, label %15, label %32

15:                                               ; preds = %12
  %16 = call i32 (i8*, ...) @__isoc99_scanf(i8* getelementptr inbounds ([3 x i8], [3 x i8]* @.str, i64 0, i64 0), i32* %3)
  %17 = load i32, i32* %3, align 4
  %18 = icmp ne i32 %17, 0
  br i1 %18, label %19, label %27

19:                                               ; preds = %15
  %20 = load i32, i32* %3, align 4
  %21 = load i32, i32* %5, align 4
  %22 = sext i32 %21 to i64
  %23 = getelementptr inbounds [100 x [16 x i32]], [100 x [16 x i32]]* %2, i64 0, i64 %22
  %24 = load i32, i32* %6, align 4
  %25 = sext i32 %24 to i64
  %26 = getelementptr inbounds [16 x i32], [16 x i32]* %23, i64 0, i64 %25
  store i32 %20, i32* %26, align 4
  br label %28

27:                                               ; preds = %15
  br label %32

28:                                               ; preds = %19
  br label %29

29:                                               ; preds = %28
  %30 = load i32, i32* %6, align 4
  %31 = add nsw i32 %30, 1
  store i32 %31, i32* %6, align 4
  br label %12

32:                                               ; preds = %27, %12
  %33 = load i32, i32* %5, align 4
  %34 = sext i32 %33 to i64
  %35 = getelementptr inbounds [100 x [16 x i32]], [100 x [16 x i32]]* %2, i64 0, i64 %34
  %36 = getelementptr inbounds [16 x i32], [16 x i32]* %35, i64 0, i64 0
  %37 = load i32, i32* %36, align 16
  %38 = icmp eq i32 %37, -1
  br i1 %38, label %39, label %40

39:                                               ; preds = %32
  br label %44

40:                                               ; preds = %32
  br label %41

41:                                               ; preds = %40
  %42 = load i32, i32* %5, align 4
  %43 = add nsw i32 %42, 1
  store i32 %43, i32* %5, align 4
  br label %8

44:                                               ; preds = %39, %8
  store i32 0, i32* %4, align 4
  store i32 0, i32* %5, align 4
  br label %45

45:                                               ; preds = %114, %44
  %46 = load i32, i32* %5, align 4
  %47 = icmp slt i32 %46, 100
  br i1 %47, label %48, label %117

48:                                               ; preds = %45
  %49 = load i32, i32* %5, align 4
  %50 = sext i32 %49 to i64
  %51 = getelementptr inbounds [100 x [16 x i32]], [100 x [16 x i32]]* %2, i64 0, i64 %50
  %52 = getelementptr inbounds [16 x i32], [16 x i32]* %51, i64 0, i64 0
  %53 = load i32, i32* %52, align 16
  %54 = icmp eq i32 %53, -1
  br i1 %54, label %55, label %56

55:                                               ; preds = %48
  br label %117

56:                                               ; preds = %48
  store i32 0, i32* %6, align 4
  br label %57

57:                                               ; preds = %108, %56
  %58 = load i32, i32* %6, align 4
  %59 = icmp slt i32 %58, 15
  br i1 %59, label %60, label %111

60:                                               ; preds = %57
  store i32 0, i32* %7, align 4
  br label %61

61:                                               ; preds = %104, %60
  %62 = load i32, i32* %7, align 4
  %63 = icmp slt i32 %62, 15
  br i1 %63, label %64, label %107

64:                                               ; preds = %61
  %65 = load i32, i32* %5, align 4
  %66 = sext i32 %65 to i64
  %67 = getelementptr inbounds [100 x [16 x i32]], [100 x [16 x i32]]* %2, i64 0, i64 %66
  %68 = load i32, i32* %6, align 4
  %69 = sext i32 %68 to i64
  %70 = getelementptr inbounds [16 x i32], [16 x i32]* %67, i64 0, i64 %69
  %71 = load i32, i32* %70, align 4
  %72 = icmp ne i32 %71, 0
  br i1 %72, label %73, label %103

73:                                               ; preds = %64
  %74 = load i32, i32* %5, align 4
  %75 = sext i32 %74 to i64
  %76 = getelementptr inbounds [100 x [16 x i32]], [100 x [16 x i32]]* %2, i64 0, i64 %75
  %77 = load i32, i32* %7, align 4
  %78 = sext i32 %77 to i64
  %79 = getelementptr inbounds [16 x i32], [16 x i32]* %76, i64 0, i64 %78
  %80 = load i32, i32* %79, align 4
  %81 = icmp ne i32 %80, 0
  br i1 %81, label %82, label %103

82:                                               ; preds = %73
  %83 = load i32, i32* %5, align 4
  %84 = sext i32 %83 to i64
  %85 = getelementptr inbounds [100 x [16 x i32]], [100 x [16 x i32]]* %2, i64 0, i64 %84
  %86 = load i32, i32* %6, align 4
  %87 = sext i32 %86 to i64
  %88 = getelementptr inbounds [16 x i32], [16 x i32]* %85, i64 0, i64 %87
  %89 = load i32, i32* %88, align 4
  %90 = load i32, i32* %5, align 4
  %91 = sext i32 %90 to i64
  %92 = getelementptr inbounds [100 x [16 x i32]], [100 x [16 x i32]]* %2, i64 0, i64 %91
  %93 = load i32, i32* %7, align 4
  %94 = sext i32 %93 to i64
  %95 = getelementptr inbounds [16 x i32], [16 x i32]* %92, i64 0, i64 %94
  %96 = load i32, i32* %95, align 4
  %97 = mul nsw i32 2, %96
  %98 = icmp eq i32 %89, %97
  br i1 %98, label %99, label %102

99:                                               ; preds = %82
  %100 = load i32, i32* %4, align 4
  %101 = add nsw i32 %100, 1
  store i32 %101, i32* %4, align 4
  br label %102

102:                                              ; preds = %99, %82
  br label %103

103:                                              ; preds = %102, %73, %64
  br label %104

104:                                              ; preds = %103
  %105 = load i32, i32* %7, align 4
  %106 = add nsw i32 %105, 1
  store i32 %106, i32* %7, align 4
  br label %61

107:                                              ; preds = %61
  br label %108

108:                                              ; preds = %107
  %109 = load i32, i32* %6, align 4
  %110 = add nsw i32 %109, 1
  store i32 %110, i32* %6, align 4
  br label %57

111:                                              ; preds = %57
  %112 = load i32, i32* %4, align 4
  %113 = call i32 (i8*, ...) @printf(i8* getelementptr inbounds ([4 x i8], [4 x i8]* @.str.1, i64 0, i64 0), i32 %112)
  store i32 0, i32* %4, align 4
  br label %114

114:                                              ; preds = %111
  %115 = load i32, i32* %5, align 4
  %116 = add nsw i32 %115, 1
  store i32 %116, i32* %5, align 4
  br label %45

117:                                              ; preds = %55, %45
  ret i32 0
}

declare dso_local i32 @__isoc99_scanf(i8*, ...) #1

declare dso_local i32 @printf(i8*, ...) #1


!llvm.module.flags = !{!0}
!llvm.ident = !{!1}

!0 = !{i32 1, !"wchar_size", i32 4}
!1 = !{!"clang version 10.0.0-4ubuntu1 "}
